target datalayout = "e-m:e-p270:32:32-p271:32:32-p272:64:64-i64:64-i128:128-f80:128-n8:16:32:64-S128"
target triple = "x86_64-pc-linux-gnu"

%struct.BitstreamContextLE = type { i64, ptr, ptr, ptr, i32, i32 }

; Function Attrs: inlinehint nounwind uwtable
define internal void @bits_priv_skip_remaining_le(ptr noundef %0, i32 noundef %1) #5 {
  %3 = alloca ptr, align 8
  %4 = alloca i32, align 4
  store ptr %0, ptr %3, align 8, !tbaa !44
  store i32 %1, ptr %4, align 4, !tbaa !49
  %5 = load i32, ptr %4, align 4, !tbaa !49
  %6 = load ptr, ptr %3, align 8, !tbaa !44
  %7 = getelementptr inbounds nuw %struct.BitstreamContextLE, ptr %6, i32 0, i32 0
  %8 = load i64, ptr %7, align 8, !tbaa !121
  %9 = zext i32 %5 to i64
  %10 = lshr i64 %8, %9
  store i64 %10, ptr %7, align 8, !tbaa !121
  %11 = load i32, ptr %4, align 4, !tbaa !49
  %12 = load ptr, ptr %3, align 8, !tbaa !44
  %13 = getelementptr inbounds nuw %struct.BitstreamContextLE, ptr %12, i32 0, i32 4
  %14 = load i32, ptr %13, align 8, !tbaa !103
  %15 = sub i32 %14, %11
  store i32 %15, ptr %13, align 8, !tbaa !103
  ret void
}

; Function Attrs: inlinehint nounwind uwtable
define internal i64 @bits_priv_val_show_le(ptr noundef %0, i32 noundef %1) #5 {
  %3 = alloca ptr, align 8
  %4 = alloca i32, align 4
  store ptr %0, ptr %3, align 8, !tbaa !44
  store i32 %1, ptr %4, align 4, !tbaa !49
  %5 = load ptr, ptr %3, align 8, !tbaa !44
  %6 = getelementptr inbounds nuw %struct.BitstreamContextLE, ptr %5, i32 0, i32 0
  %7 = load i64, ptr %6, align 8, !tbaa !121
  %8 = load i32, ptr %4, align 4, !tbaa !49
  %9 = sub i32 64, %8
  %10 = zext i32 %9 to i64
  %11 = lshr i64 -1, %10
  %12 = and i64 %7, %11
  ret i64 %12
}

; Function Attrs: inlinehint nounwind uwtable
define internal i64 @bits_priv_val_get_le(ptr noundef %0, i32 noundef %1) #5 {
  %3 = alloca ptr, align 8
  %4 = alloca i32, align 4
  %5 = alloca i64, align 8
  store ptr %0, ptr %3, align 8, !tbaa !44
  store i32 %1, ptr %4, align 4, !tbaa !49
  call void @llvm.lifetime.start.p0(i64 8, ptr %5) #9
  %6 = load ptr, ptr %3, align 8, !tbaa !44
  %7 = load i32, ptr %4, align 4, !tbaa !49
  %8 = call i64 @bits_priv_val_show_le(ptr noundef %6, i32 noundef %7)
  store i64 %8, ptr %5, align 8, !tbaa !144
  %9 = load ptr, ptr %3, align 8, !tbaa !44
  %10 = load i32, ptr %4, align 4, !tbaa !49
  call void @bits_priv_skip_remaining_le(ptr noundef %9, i32 noundef %10)
  %11 = load i64, ptr %5, align 8, !tbaa !144
  call void @llvm.lifetime.end.p0(i64 8, ptr %5) #9
  ret i64 %11
}

; Function Attrs: inlinehint nounwind uwtable
define internal i32 @bits_priv_refill_32_le(ptr noundef %0) #5 {
  %2 = alloca i32, align 4
  %3 = alloca ptr, align 8
  store ptr %0, ptr %3, align 8, !tbaa !44
  %4 = load ptr, ptr %3, align 8, !tbaa !44
  %5 = getelementptr inbounds nuw %struct.BitstreamContextLE, ptr %4, i32 0, i32 3
  %6 = load ptr, ptr %5, align 8, !tbaa !101
  %7 = load ptr, ptr %3, align 8, !tbaa !44
  %8 = getelementptr inbounds nuw %struct.BitstreamContextLE, ptr %7, i32 0, i32 2
  %9 = load ptr, ptr %8, align 8, !tbaa !123
  %10 = icmp uge ptr %6, %9
  br i1 %10, label %11, label %12

11:                                               ; preds = %1
  store i32 -1, ptr %2, align 4
  br label %35

12:                                               ; preds = %1
  %13 = load ptr, ptr %3, align 8, !tbaa !44
  %14 = getelementptr inbounds nuw %struct.BitstreamContextLE, ptr %13, i32 0, i32 3
  %15 = load ptr, ptr %14, align 8, !tbaa !101
  %16 = load i32, ptr %15, align 1, !tbaa !87
  %17 = zext i32 %16 to i64
  %18 = load ptr, ptr %3, align 8, !tbaa !44
  %19 = getelementptr inbounds nuw %struct.BitstreamContextLE, ptr %18, i32 0, i32 4
  %20 = load i32, ptr %19, align 8, !tbaa !103
  %21 = zext i32 %20 to i64
  %22 = shl i64 %17, %21
  %23 = load ptr, ptr %3, align 8, !tbaa !44
  %24 = getelementptr inbounds nuw %struct.BitstreamContextLE, ptr %23, i32 0, i32 0
  %25 = load i64, ptr %24, align 8, !tbaa !121
  %26 = or i64 %25, %22
  store i64 %26, ptr %24, align 8, !tbaa !121
  %27 = load ptr, ptr %3, align 8, !tbaa !44
  %28 = getelementptr inbounds nuw %struct.BitstreamContextLE, ptr %27, i32 0, i32 3
  %29 = load ptr, ptr %28, align 8, !tbaa !101
  %30 = getelementptr inbounds i8, ptr %29, i64 4
  store ptr %30, ptr %28, align 8, !tbaa !101
  %31 = load ptr, ptr %3, align 8, !tbaa !44
  %32 = getelementptr inbounds nuw %struct.BitstreamContextLE, ptr %31, i32 0, i32 4
  %33 = load i32, ptr %32, align 8, !tbaa !103
  %34 = add i32 %33, 32
  store i32 %34, ptr %32, align 8, !tbaa !103
  store i32 0, ptr %2, align 4
  br label %35

35:                                               ; preds = %12, %11
  %36 = load i32, ptr %2, align 4
  ret i32 %36
}

; Function Attrs: inlinehint nounwind uwtable
define internal i32 @bits_read_nz_le(ptr noundef %0, i32 noundef %1) #5 {
  %3 = alloca ptr, align 8
  %4 = alloca i32, align 4
  store ptr %0, ptr %3, align 8, !tbaa !44
  store i32 %1, ptr %4, align 4, !tbaa !49
  %5 = load i32, ptr %4, align 4, !tbaa !49
  %6 = load ptr, ptr %3, align 8, !tbaa !44
  %7 = getelementptr inbounds nuw %struct.BitstreamContextLE, ptr %6, i32 0, i32 4
  %8 = load i32, ptr %7, align 8, !tbaa !103
  %9 = icmp ugt i32 %5, %8
  br i1 %9, label %10, label %19

10:                                               ; preds = %2
  %11 = load ptr, ptr %3, align 8, !tbaa !44
  %12 = call i32 @bits_priv_refill_32_le(ptr noundef %11)
  %13 = icmp slt i32 %12, 0
  br i1 %13, label %14, label %18

14:                                               ; preds = %10
  %15 = load i32, ptr %4, align 4, !tbaa !49
  %16 = load ptr, ptr %3, align 8, !tbaa !44
  %17 = getelementptr inbounds nuw %struct.BitstreamContextLE, ptr %16, i32 0, i32 4
  store i32 %15, ptr %17, align 8, !tbaa !103
  br label %18

18:                                               ; preds = %14, %10
  br label %19

19:                                               ; preds = %18, %2
  %20 = load ptr, ptr %3, align 8, !tbaa !44
  %21 = load i32, ptr %4, align 4, !tbaa !49
  %22 = call i64 @bits_priv_val_get_le(ptr noundef %20, i32 noundef %21)
  %23 = trunc i64 %22 to i32
  ret i32 %23
}