; Function Attrs: inlinehint mustprogress nofree norecurse nosync nounwind willreturn memory(read, argmem: readwrite, inaccessiblemem: none) uwtable
define internal fastcc i32 @bits_read_nz_le(ptr noundef captures(none) %0, i32 noundef %1) unnamed_addr #7 {
  %3 = getelementptr inbounds nuw i8, ptr %0, i64 32
  %4 = load i32, ptr %3, align 8, !tbaa !44
  %5 = icmp ugt i32 %1, %4
  br i1 %5, label %6, label %19

6:                                                ; preds = %2
  %7 = getelementptr inbounds nuw i8, ptr %0, i64 24
  %8 = load ptr, ptr %7, align 8, !tbaa !43
  %9 = getelementptr inbounds nuw i8, ptr %0, i64 16
  %10 = load ptr, ptr %9, align 8, !tbaa !45
  %.not.i = icmp ult ptr %8, %10
  br i1 %.not.i, label %bits_priv_refill_32_le.exit, label %19

bits_priv_refill_32_le.exit:                      ; preds = %6
  %11 = load i32, ptr %8, align 1, !tbaa !48
  %12 = zext i32 %11 to i64
  %13 = zext nneg i32 %4 to i64
  %14 = shl i64 %12, %13
  %15 = load i64, ptr %0, align 8, !tbaa !47
  %16 = or i64 %14, %15
  store i64 %16, ptr %0, align 8, !tbaa !47
  %17 = getelementptr inbounds nuw i8, ptr %8, i64 4
  store ptr %17, ptr %7, align 8, !tbaa !43
  %18 = add i32 %4, 32
  br label %19

19:                                               ; preds = %6, %bits_priv_refill_32_le.exit, %2
  %20 = phi i32 [ %18, %bits_priv_refill_32_le.exit ], [ %4, %2 ], [ %1, %6 ]
  %.val.i = load i64, ptr %0, align 8, !tbaa !47
  %21 = sub i32 64, %1
  %22 = zext nneg i32 %21 to i64
  %23 = lshr i64 -1, %22
  %24 = and i64 %.val.i, %23
  %25 = zext nneg i32 %1 to i64
  %26 = lshr i64 %.val.i, %25
  store i64 %26, ptr %0, align 8, !tbaa !47
  %27 = sub i32 %20, %1
  store i32 %27, ptr %3, align 8, !tbaa !44
  %28 = trunc i64 %24 to i32
  ret i32 %28
}